ARM GAS  /tmp/ccY32ELc.s 			page 1


   1              		.cpu cortex-m4
   2              		.eabi_attribute 20, 1
   3              		.eabi_attribute 21, 1
   4              		.eabi_attribute 23, 3
   5              		.eabi_attribute 24, 1
   6              		.eabi_attribute 25, 1
   7              		.eabi_attribute 26, 1
   8              		.eabi_attribute 30, 6
   9              		.eabi_attribute 34, 1
  10              		.eabi_attribute 18, 4
  11              		.file	"SysCalls.cpp"
  12              		.text
  13              	.Ltext0:
  14              		.cfi_sections	.debug_frame
  15              		.section	.text.clock,"ax",%progbits
  16              		.align	1
  17              		.global	clock
  18              		.arch armv7e-m
  19              		.syntax unified
  20              		.thumb
  21              		.thumb_func
  22              		.fpu softvfp
  24              	clock:
  25              	.LFB4:
  26              		.file 1 "libTime/SysCalls.cpp"
   1:libTime/SysCalls.cpp **** /**
   2:libTime/SysCalls.cpp ****  * @file SysCalls.c
   3:libTime/SysCalls.cpp ****  * @author Adrian Szczepanski
   4:libTime/SysCalls.cpp ****  * @date 07-06-2022
   5:libTime/SysCalls.cpp ****  * @brief 
   6:libTime/SysCalls.cpp ****  * @details
   7:libTime/SysCalls.cpp ****  */
   8:libTime/SysCalls.cpp **** 
   9:libTime/SysCalls.cpp **** #include "IHal.hpp"
  10:libTime/SysCalls.cpp **** 
  11:libTime/SysCalls.cpp **** #ifdef __cplusplus
  12:libTime/SysCalls.cpp **** extern "C" {
  13:libTime/SysCalls.cpp **** #endif
  14:libTime/SysCalls.cpp **** 
  15:libTime/SysCalls.cpp **** clock_t clock (void)
  16:libTime/SysCalls.cpp **** {
  27              		.loc 1 16 1
  28              		.cfi_startproc
  29              		@ args = 0, pretend = 0, frame = 0
  30              		@ frame_needed = 1, uses_anonymous_args = 0
  31 0000 80B5     		push	{r7, lr}
  32              	.LCFI0:
  33              		.cfi_def_cfa_offset 8
  34              		.cfi_offset 7, -8
  35              		.cfi_offset 14, -4
  36 0002 00AF     		add	r7, sp, #0
  37              	.LCFI1:
  38              		.cfi_def_cfa_register 7
  17:libTime/SysCalls.cpp ****     return Time::GetHal()->GetClock();
  39              		.loc 1 17 24
  40 0004 FFF7FEFF 		bl	_ZN4Time6GetHalEv
  41 0008 0346     		mov	r3, r0
ARM GAS  /tmp/ccY32ELc.s 			page 2


  42              		.loc 1 17 37
  43 000a 1A68     		ldr	r2, [r3]
  44 000c 0832     		adds	r2, r2, #8
  45 000e 1268     		ldr	r2, [r2]
  46              		.loc 1 17 36
  47 0010 1846     		mov	r0, r3
  48 0012 9047     		blx	r2
  49              	.LVL0:
  50 0014 0346     		mov	r3, r0
  18:libTime/SysCalls.cpp **** }
  51              		.loc 1 18 1
  52 0016 1846     		mov	r0, r3
  53 0018 80BD     		pop	{r7, pc}
  54              		.cfi_endproc
  55              	.LFE4:
  57              		.section	.text.time,"ax",%progbits
  58              		.align	1
  59              		.global	time
  60              		.syntax unified
  61              		.thumb
  62              		.thumb_func
  63              		.fpu softvfp
  65              	time:
  66              	.LFB5:
  19:libTime/SysCalls.cpp **** 
  20:libTime/SysCalls.cpp **** time_t time (time_t* timer)
  21:libTime/SysCalls.cpp **** {
  67              		.loc 1 21 1
  68              		.cfi_startproc
  69              		@ args = 0, pretend = 0, frame = 8
  70              		@ frame_needed = 1, uses_anonymous_args = 0
  71 0000 80B5     		push	{r7, lr}
  72              	.LCFI2:
  73              		.cfi_def_cfa_offset 8
  74              		.cfi_offset 7, -8
  75              		.cfi_offset 14, -4
  76 0002 82B0     		sub	sp, sp, #8
  77              	.LCFI3:
  78              		.cfi_def_cfa_offset 16
  79 0004 00AF     		add	r7, sp, #0
  80              	.LCFI4:
  81              		.cfi_def_cfa_register 7
  82 0006 7860     		str	r0, [r7, #4]
  22:libTime/SysCalls.cpp ****     return Time::GetHal()->GetTime();
  83              		.loc 1 22 24
  84 0008 FFF7FEFF 		bl	_ZN4Time6GetHalEv
  85 000c 0346     		mov	r3, r0
  86              		.loc 1 22 36
  87 000e 1A68     		ldr	r2, [r3]
  88 0010 0C32     		adds	r2, r2, #12
  89 0012 1268     		ldr	r2, [r2]
  90              		.loc 1 22 35
  91 0014 1846     		mov	r0, r3
  92 0016 9047     		blx	r2
  93              	.LVL1:
  94 0018 0246     		mov	r2, r0
  95 001a 0B46     		mov	r3, r1
ARM GAS  /tmp/ccY32ELc.s 			page 3


  23:libTime/SysCalls.cpp **** }
  96              		.loc 1 23 1
  97 001c 1046     		mov	r0, r2
  98 001e 1946     		mov	r1, r3
  99 0020 0837     		adds	r7, r7, #8
 100              	.LCFI5:
 101              		.cfi_def_cfa_offset 8
 102 0022 BD46     		mov	sp, r7
 103              	.LCFI6:
 104              		.cfi_def_cfa_register 13
 105              		@ sp needed
 106 0024 80BD     		pop	{r7, pc}
 107              		.cfi_endproc
 108              	.LFE5:
 110              		.text
 111              	.Letext0:
 112              		.file 2 "/opt/gcc-arm/arm-none-eabi/include/machine/_default_types.h"
 113              		.file 3 "/opt/gcc-arm/arm-none-eabi/include/sys/types.h"
 114              		.file 4 "libTime/IHal.hpp"
ARM GAS  /tmp/ccY32ELc.s 			page 4

